; ModuleID = '37/519.c'
source_filename = "37/519.c"
target datalayout = "e-m:e-p270:32:32-p271:32:32-p272:64:64-i64:64-f80:128-n8:16:32:64-S128"
target triple = "x86_64-pc-linux-gnu"

@.str = private unnamed_addr constant [4 x i8] c"%d\0A\00", align 1
@.str.1 = private unnamed_addr constant [4 x i8] c"%c\0A\00", align 1
@.str.2 = private unnamed_addr constant [4 x i8] c"no\0A\00", align 1

; Function Attrs: noinline nounwind uwtable
define dso_local void @main() #0 {
  %1 = alloca i32, align 4
  %2 = alloca i32, align 4
  %3 = alloca i32, align 4
  %4 = alloca [100 x i8*], align 16
  %5 = alloca i8*, align 8
  %6 = alloca i8*, align 8
  store i32 0, i32* %3, align 4
  %7 = call i32 (i8*, ...) @__isoc99_scanf(i8* getelementptr inbounds ([4 x i8], [4 x i8]* @.str, i64 0, i64 0), i32* %1)
  store i32 0, i32* %2, align 4
  br label %8

8:                                                ; preds = %22, %0
  %9 = load i32, i32* %2, align 4
  %10 = load i32, i32* %1, align 4
  %11 = icmp slt i32 %9, %10
  br i1 %11, label %12, label %25

12:                                               ; preds = %8
  %13 = call noalias i8* @malloc(i64 100000) #3
  %14 = load i32, i32* %2, align 4
  %15 = sext i32 %14 to i64
  %16 = getelementptr inbounds [100 x i8*], [100 x i8*]* %4, i64 0, i64 %15
  store i8* %13, i8** %16, align 8
  %17 = load i32, i32* %2, align 4
  %18 = sext i32 %17 to i64
  %19 = getelementptr inbounds [100 x i8*], [100 x i8*]* %4, i64 0, i64 %18
  %20 = load i8*, i8** %19, align 8
  %21 = call i32 (i8*, ...) bitcast (i32 (...)* @gets to i32 (i8*, ...)*)(i8* %20)
  br label %22

22:                                               ; preds = %12
  %23 = load i32, i32* %2, align 4
  %24 = add nsw i32 %23, 1
  store i32 %24, i32* %2, align 4
  br label %8

25:                                               ; preds = %8
  store i32 0, i32* %2, align 4
  br label %26

26:                                               ; preds = %105, %25
  %27 = load i32, i32* %2, align 4
  %28 = load i32, i32* %1, align 4
  %29 = icmp slt i32 %27, %28
  br i1 %29, label %30, label %108

30:                                               ; preds = %26
  %31 = load i32, i32* %2, align 4
  %32 = sext i32 %31 to i64
  %33 = getelementptr inbounds [100 x i8*], [100 x i8*]* %4, i64 0, i64 %32
  %34 = load i8*, i8** %33, align 8
  store i8* %34, i8** %5, align 8
  br label %35

35:                                               ; preds = %70, %30
  %36 = load i8*, i8** %5, align 8
  %37 = load i8, i8* %36, align 1
  %38 = sext i8 %37 to i32
  %39 = icmp ne i32 %38, 0
  br i1 %39, label %40, label %73

40:                                               ; preds = %35
  store i32 0, i32* %3, align 4
  %41 = load i8*, i8** %5, align 8
  %42 = getelementptr inbounds i8, i8* %41, i64 1
  store i8* %42, i8** %6, align 8
  br label %43

43:                                               ; preds = %61, %40
  %44 = load i8*, i8** %6, align 8
  %45 = load i8, i8* %44, align 1
  %46 = sext i8 %45 to i32
  %47 = icmp ne i32 %46, 0
  br i1 %47, label %48, label %64

48:                                               ; preds = %43
  %49 = load i8*, i8** %6, align 8
  %50 = load i8, i8* %49, align 1
  %51 = sext i8 %50 to i32
  %52 = load i8*, i8** %5, align 8
  %53 = load i8, i8* %52, align 1
  %54 = sext i8 %53 to i32
  %55 = icmp eq i32 %51, %54
  br i1 %55, label %56, label %60

56:                                               ; preds = %48
  %57 = load i8*, i8** %6, align 8
  store i8 32, i8* %57, align 1
  %58 = load i32, i32* %3, align 4
  %59 = add nsw i32 %58, 1
  store i32 %59, i32* %3, align 4
  br label %60

60:                                               ; preds = %56, %48
  br label %61

61:                                               ; preds = %60
  %62 = load i8*, i8** %6, align 8
  %63 = getelementptr inbounds i8, i8* %62, i32 1
  store i8* %63, i8** %6, align 8
  br label %43

64:                                               ; preds = %43
  %65 = load i32, i32* %3, align 4
  %66 = icmp ne i32 %65, 0
  br i1 %66, label %67, label %69

67:                                               ; preds = %64
  %68 = load i8*, i8** %5, align 8
  store i8 32, i8* %68, align 1
  br label %69

69:                                               ; preds = %67, %64
  br label %70

70:                                               ; preds = %69
  %71 = load i8*, i8** %5, align 8
  %72 = getelementptr inbounds i8, i8* %71, i32 1
  store i8* %72, i8** %5, align 8
  br label %35

73:                                               ; preds = %35
  %74 = load i32, i32* %2, align 4
  %75 = sext i32 %74 to i64
  %76 = getelementptr inbounds [100 x i8*], [100 x i8*]* %4, i64 0, i64 %75
  %77 = load i8*, i8** %76, align 8
  store i8* %77, i8** %6, align 8
  br label %78

78:                                               ; preds = %94, %73
  %79 = load i8*, i8** %6, align 8
  %80 = load i8, i8* %79, align 1
  %81 = sext i8 %80 to i32
  %82 = icmp ne i32 %81, 0
  br i1 %82, label %83, label %97

83:                                               ; preds = %78
  %84 = load i8*, i8** %6, align 8
  %85 = load i8, i8* %84, align 1
  %86 = sext i8 %85 to i32
  %87 = icmp ne i32 %86, 32
  br i1 %87, label %88, label %93

88:                                               ; preds = %83
  %89 = load i8*, i8** %6, align 8
  %90 = load i8, i8* %89, align 1
  %91 = sext i8 %90 to i32
  %92 = call i32 (i8*, ...) @printf(i8* getelementptr inbounds ([4 x i8], [4 x i8]* @.str.1, i64 0, i64 0), i32 %91)
  br label %97

93:                                               ; preds = %83
  br label %94

94:                                               ; preds = %93
  %95 = load i8*, i8** %6, align 8
  %96 = getelementptr inbounds i8, i8* %95, i32 1
  store i8* %96, i8** %6, align 8
  br label %78

97:                                               ; preds = %88, %78
  %98 = load i8*, i8** %6, align 8
  %99 = load i8, i8* %98, align 1
  %100 = sext i8 %99 to i32
  %101 = icmp eq i32 %100, 0
  br i1 %101, label %102, label %104

102:                                              ; preds = %97
  %103 = call i32 (i8*, ...) @printf(i8* getelementptr inbounds ([4 x i8], [4 x i8]* @.str.2, i64 0, i64 0))
  br label %104

104:                                              ; preds = %102, %97
  br label %105

105:                                              ; preds = %104
  %106 = load i32, i32* %2, align 4
  %107 = add nsw i32 %106, 1
  store i32 %107, i32* %2, align 4
  br label %26

108:                                              ; preds = %26
  ret void
}

declare dso_local i32 @__isoc99_scanf(i8*, ...) #1

; Function Attrs: nounwind
declare dso_local noalias i8* @malloc(i64) #2

declare dso_local i32 @gets(...) #1

declare dso_local i32 @printf(i8*, ...) #1


!llvm.module.flags = !{!0}
!llvm.ident = !{!1}

!0 = !{i32 1, !"wchar_size", i32 4}
!1 = !{!"clang version 10.0.0-4ubuntu1 "}
